; Function Attrs: mustprogress nounwind uwtable
define hidden void @_ZN12ciMethodData34dump_replay_data_extra_data_helperEP12outputStreamiRi(ptr nocapture noundef nonnull readonly align 8 dereferenceable(176) %0, ptr noundef %1, i32 noundef %2, ptr nocapture noundef nonnull align 4 dereferenceable(4) %3) local_unnamed_addr #1 align 2 {
  %5 = getelementptr inbounds i8, ptr %0, i64 24
  %6 = load i32, ptr %5, align 8
  %7 = getelementptr inbounds i8, ptr %0, i64 32
  %8 = load ptr, ptr %7, align 8
  %9 = getelementptr inbounds i8, ptr %0, i64 40
  %10 = load i32, ptr %9, align 8
  %11 = sext i32 %10 to i64
  %12 = getelementptr inbounds i8, ptr %8, i64 %11
  %13 = icmp slt i32 %6, %10
  br i1 %13, label %.lr.ph, label %._crit_edge

.lr.ph:                                           ; preds = %4
  %14 = sext i32 %6 to i64
  %15 = getelementptr inbounds i8, ptr %8, i64 %14
  %16 = icmp eq i32 %2, 0
  br i1 %16, label %.lr.ph.split.us, label %.lr.ph.split

.lr.ph.split.us:                                  ; preds = %.lr.ph, %26
  %.016.us = phi ptr [ %27, %26 ], [ %15, %.lr.ph ]
  %17 = load i8, ptr %.016.us, align 8
  switch i8 %17, label %.split.us [
    i8 0, label %._crit_edge
    i8 9, label %._crit_edge
    i8 1, label %26
    i8 13, label %18
  ]

18:                                               ; preds = %.lr.ph.split.us
  %19 = tail call noundef ptr @_Z23resource_allocate_bytesmN17AllocFailStrategy13AllocFailEnumE(i64 noundef 16, i32 noundef 0) #12
  %20 = getelementptr inbounds i8, ptr %19, i64 8
  store ptr %.016.us, ptr %20, align 8
  store ptr getelementptr inbounds inrange(-16, 152) (i8, ptr @_ZTV21ciSpeculativeTrapData, i64 16), ptr %19, align 8
  %21 = getelementptr inbounds i8, ptr %.016.us, i64 8
  %22 = load i64, ptr %21, align 8
  %.not.us = icmp eq i64 %22, 0
  br i1 %.not.us, label %26, label %23

23:                                               ; preds = %18
  %24 = load i32, ptr %3, align 4
  %25 = add nsw i32 %24, 1
  store i32 %25, ptr %3, align 4
  br label %26

26:                                               ; preds = %23, %18, %.lr.ph.split.us
  %27 = tail call noundef ptr @_ZN10MethodData10next_extraEP10DataLayout(ptr noundef nonnull %.016.us) #12
  %28 = icmp ult ptr %27, %12
  br i1 %28, label %.lr.ph.split.us, label %._crit_edge, !llvm.loop !21

.lr.ph.split:                                     ; preds = %.lr.ph, %46
  %.016 = phi ptr [ %47, %46 ], [ %15, %.lr.ph ]
  %29 = load i8, ptr %.016, align 8
  switch i8 %29, label %.split.us [
    i8 0, label %._crit_edge
    i8 9, label %._crit_edge
    i8 1, label %46
    i8 13, label %30
  ]

30:                                               ; preds = %.lr.ph.split
  %31 = tail call noundef ptr @_Z23resource_allocate_bytesmN17AllocFailStrategy13AllocFailEnumE(i64 noundef 16, i32 noundef 0) #12
  %32 = getelementptr inbounds i8, ptr %31, i64 8
  store ptr %.016, ptr %32, align 8
  store ptr getelementptr inbounds inrange(-16, 152) (i8, ptr @_ZTV21ciSpeculativeTrapData, i64 16), ptr %31, align 8
  %33 = getelementptr inbounds i8, ptr %.016, i64 8
  %34 = load i64, ptr %33, align 8
  %.not = icmp eq i64 %34, 0
  br i1 %.not, label %46, label %35

35:                                               ; preds = %30
  %36 = inttoptr i64 %34 to ptr
  %37 = load ptr, ptr %7, align 8
  %38 = ptrtoint ptr %33 to i64
  %39 = ptrtoint ptr %37 to i64
  %40 = sub i64 %38, %39
  %41 = trunc i64 %40 to i32
  %42 = ashr i32 %41, 3
  tail call void (ptr, ptr, ...) @_ZN12outputStream5printEPKcz(ptr noundef nonnull align 8 dereferenceable(56) %1, ptr noundef nonnull @.str.6, i32 noundef %42) #12
  tail call void @_ZN8ciMethod18dump_name_as_asciiEP12outputStream(ptr noundef nonnull align 8 dereferenceable(160) %36, ptr noundef nonnull %1) #12
  br label %46

.split.us:                                        ; preds = %.lr.ph.split, %.lr.ph.split.us
  %.us-phi = phi ptr [ %.016.us, %.lr.ph.split.us ], [ %.016, %.lr.ph.split ]
  %43 = load ptr, ptr @g_assert_poison, align 8
  store i8 88, ptr %43, align 1
  %44 = load i8, ptr %.us-phi, align 8
  %45 = zext i8 %44 to i32
  tail call void (i32, ptr, i32, ptr, ...) @_Z12report_fatal11VMErrorTypePKciS1_z(i32 noundef -536870912, ptr noundef nonnull @.str, i32 noundef 760, ptr noundef nonnull @.str.4, i32 noundef %45) #13
  unreachable

46:                                               ; preds = %.lr.ph.split, %35, %30
  %47 = tail call noundef ptr @_ZN10MethodData10next_extraEP10DataLayout(ptr noundef nonnull %.016) #12
  %48 = icmp ult ptr %47, %12
  br i1 %48, label %.lr.ph.split, label %._crit_edge, !llvm.loop !21

._crit_edge:                                      ; preds = %46, %.lr.ph.split, %.lr.ph.split, %26, %.lr.ph.split.us, %.lr.ph.split.us, %4
  ret void
}